target datalayout = "e-m:e-p270:32:32-p271:32:32-p272:64:64-i64:64-i128:128-f80:128-n8:16:32:64-S128"
target triple = "x86_64-pc-linux-gnu"

%struct.cli_pcre_results = type { i32, [2 x i32], ptr }

; Function Attrs: nounwind uwtable
define void @cli_pcre_results_free(ptr noundef %0) #0 {
  %2 = alloca ptr, align 8
  store ptr %0, ptr %2, align 8
  %3 = load ptr, ptr %2, align 8
  %4 = getelementptr inbounds %struct.cli_pcre_results, ptr %3, i32 0, i32 2
  %5 = load ptr, ptr %4, align 8
  %6 = icmp ne ptr %5, null
  br i1 %6, label %7, label %11

7:                                                ; preds = %1
  %8 = load ptr, ptr %2, align 8
  %9 = getelementptr inbounds %struct.cli_pcre_results, ptr %8, i32 0, i32 2
  %10 = load ptr, ptr %9, align 8
  call void @pcre2_match_data_free_8(ptr noundef %10)
  br label %11

11:                                               ; preds = %7, %1
  ret void
}