; Function Attrs: nounwind uwtable
define void @cli_pcre_results_free(ptr nocapture noundef readonly %0) local_unnamed_addr #0 {
  %2 = getelementptr inbounds i8, ptr %0, i64 16
  %3 = load ptr, ptr %2, align 8
  %.not = icmp eq ptr %3, null
  br i1 %.not, label %5, label %4

4:                                                ; preds = %1
  tail call void @pcre2_match_data_free_8(ptr noundef nonnull %3) #6
  br label %5

5:                                                ; preds = %4, %1
  ret void
}